target datalayout = "e-m:e-p270:32:32-p271:32:32-p272:64:64-i64:64-i128:128-f80:128-n8:16:32:64-S128"
target triple = "x86_64-pc-linux-gnu"

%struct._connParams = type { ptr, ptr, ptr, ptr, i32, ptr }
%struct._restoreOptions = type { i32, i32, i32, i32, i32, i32, ptr, ptr, i32, i32, i32, i32, i32, i32, i32, i32, i32, i32, ptr, i32, i32, i32, ptr, i32, i32, ptr, i32, ptr, i32, i32, i32, i32, i32, %struct.SimpleStringList, %struct.SimpleStringList, %struct.SimpleStringList, %struct.SimpleStringList, %struct.SimpleStringList, %struct.SimpleStringList, i32, %struct._connParams, i32, i32, %struct.pg_compress_specification, i32, i8, i32, ptr, i32, i32, i32, i8, i8 }
%struct.SimpleStringList = type { ptr, ptr }
%struct.pg_compress_specification = type { i32, i32, i32, i32, i8, ptr }
%struct._archiveHandle = type { %struct.Archive, i32, ptr, ptr, i64, i64, i32, %struct.sqlparseInfo, i64, i32, ptr, i64, i64, i64, ptr, ptr, ptr, ptr, ptr, ptr, ptr, ptr, ptr, ptr, ptr, ptr, ptr, ptr, ptr, ptr, ptr, ptr, ptr, ptr, ptr, ptr, ptr, ptr, ptr, ptr, ptr, ptr, ptr, ptr, i32, i32, i8, i32, i8, i32, ptr, ptr, ptr, ptr, i32, i32, ptr, ptr, ptr, %struct.pg_compress_specification, i8, i32, i32, ptr, ptr, ptr, ptr, ptr, i32, ptr, i64, i64, i32, i32, i32, i32, ptr, ptr }
%struct.Archive = type { ptr, ptr, i32, ptr, i32, i8, i32, i32, i32, ptr, i32, i8, ptr, ptr, i8, i32, ptr }
%struct.sqlparseInfo = type { i32, i8, ptr }

@.str.12 = private unnamed_addr constant [2 x i8] c"\0A\00", align 1
@.str.25 = private unnamed_addr constant [3 x i8] c"%s\00", align 1
@.str.248 = private unnamed_addr constant [28 x i8] c"SET statement_timeout = 0;\0A\00", align 1
@.str.249 = private unnamed_addr constant [23 x i8] c"SET lock_timeout = 0;\0A\00", align 1
@.str.250 = private unnamed_addr constant [46 x i8] c"SET idle_in_transaction_session_timeout = 0;\0A\00", align 1
@.str.251 = private unnamed_addr constant [30 x i8] c"SET transaction_timeout = 0;\0A\00", align 1
@.str.252 = private unnamed_addr constant [29 x i8] c"SET client_encoding = '%s';\0A\00", align 1
@.str.253 = private unnamed_addr constant [39 x i8] c"SET standard_conforming_strings = %s;\0A\00", align 1
@.str.254 = private unnamed_addr constant [3 x i8] c"on\00", align 1
@.str.255 = private unnamed_addr constant [4 x i8] c"off\00", align 1
@.str.256 = private unnamed_addr constant [14 x i8] c"SET ROLE %s;\0A\00", align 1
@.str.257 = private unnamed_addr constant [36 x i8] c"SET check_function_bodies = false;\0A\00", align 1
@.str.258 = private unnamed_addr constant [26 x i8] c"SET xmloption = content;\0A\00", align 1
@.str.259 = private unnamed_addr constant [36 x i8] c"SET client_min_messages = warning;\0A\00", align 1
@.str.260 = private unnamed_addr constant [34 x i8] c"SET escape_string_warning = off;\0A\00", align 1
@.str.261 = private unnamed_addr constant [24 x i8] c"SET row_security = on;\0A\00", align 1
@.str.262 = private unnamed_addr constant [25 x i8] c"SET row_security = off;\0A\00", align 1
@.str.263 = private unnamed_addr constant [9 x i8] c"\0ABEGIN;\0A\00", align 1

; Function Attrs: nounwind uwtable
define internal void @_doSetFixedOutputState(ptr noundef %0) #0 {
  %2 = alloca ptr, align 8
  %3 = alloca ptr, align 8
  store ptr %0, ptr %2, align 8
  call void @llvm.lifetime.start.p0(i64 8, ptr %3) #11
  %4 = load ptr, ptr %2, align 8
  %5 = getelementptr inbounds nuw %struct._archiveHandle, ptr %4, i32 0, i32 0
  %6 = getelementptr inbounds nuw %struct.Archive, ptr %5, i32 0, i32 1
  %7 = load ptr, ptr %6, align 8
  store ptr %7, ptr %3, align 8
  %8 = load ptr, ptr %2, align 8
  %9 = call i32 (ptr, ptr, ...) @ahprintf(ptr noundef %8, ptr noundef @.str.248)
  %10 = load ptr, ptr %2, align 8
  %11 = call i32 (ptr, ptr, ...) @ahprintf(ptr noundef %10, ptr noundef @.str.249)
  %12 = load ptr, ptr %2, align 8
  %13 = call i32 (ptr, ptr, ...) @ahprintf(ptr noundef %12, ptr noundef @.str.250)
  %14 = load ptr, ptr %2, align 8
  %15 = call i32 (ptr, ptr, ...) @ahprintf(ptr noundef %14, ptr noundef @.str.251)
  %16 = load ptr, ptr %2, align 8
  %17 = load ptr, ptr %2, align 8
  %18 = getelementptr inbounds nuw %struct._archiveHandle, ptr %17, i32 0, i32 0
  %19 = getelementptr inbounds nuw %struct.Archive, ptr %18, i32 0, i32 10
  %20 = load i32, ptr %19, align 8
  %21 = call ptr @pg_encoding_to_char(i32 noundef %20)
  %22 = call i32 (ptr, ptr, ...) @ahprintf(ptr noundef %16, ptr noundef @.str.252, ptr noundef %21)
  %23 = load ptr, ptr %2, align 8
  %24 = load ptr, ptr %2, align 8
  %25 = getelementptr inbounds nuw %struct._archiveHandle, ptr %24, i32 0, i32 0
  %26 = getelementptr inbounds nuw %struct.Archive, ptr %25, i32 0, i32 11
  %27 = load i8, ptr %26, align 4, !range !4, !noundef !5
  %28 = trunc i8 %27 to i1
  %29 = select i1 %28, ptr @.str.254, ptr @.str.255
  %30 = call i32 (ptr, ptr, ...) @ahprintf(ptr noundef %23, ptr noundef @.str.253, ptr noundef %29)
  %31 = load ptr, ptr %3, align 8
  %32 = icmp ne ptr %31, null
  br i1 %32, label %33, label %45

33:                                               ; preds = %1
  %34 = load ptr, ptr %3, align 8
  %35 = getelementptr inbounds nuw %struct._restoreOptions, ptr %34, i32 0, i32 7
  %36 = load ptr, ptr %35, align 8
  %37 = icmp ne ptr %36, null
  br i1 %37, label %38, label %45

38:                                               ; preds = %33
  %39 = load ptr, ptr %2, align 8
  %40 = load ptr, ptr %3, align 8
  %41 = getelementptr inbounds nuw %struct._restoreOptions, ptr %40, i32 0, i32 7
  %42 = load ptr, ptr %41, align 8
  %43 = call ptr @fmtId(ptr noundef %42)
  %44 = call i32 (ptr, ptr, ...) @ahprintf(ptr noundef %39, ptr noundef @.str.256, ptr noundef %43)
  br label %45

45:                                               ; preds = %38, %33, %1
  %46 = load ptr, ptr %2, align 8
  %47 = getelementptr inbounds nuw %struct._archiveHandle, ptr %46, i32 0, i32 0
  %48 = getelementptr inbounds nuw %struct.Archive, ptr %47, i32 0, i32 12
  %49 = load ptr, ptr %48, align 8
  %50 = icmp ne ptr %49, null
  br i1 %50, label %51, label %58

51:                                               ; preds = %45
  %52 = load ptr, ptr %2, align 8
  %53 = load ptr, ptr %2, align 8
  %54 = getelementptr inbounds nuw %struct._archiveHandle, ptr %53, i32 0, i32 0
  %55 = getelementptr inbounds nuw %struct.Archive, ptr %54, i32 0, i32 12
  %56 = load ptr, ptr %55, align 8
  %57 = call i32 (ptr, ptr, ...) @ahprintf(ptr noundef %52, ptr noundef @.str.25, ptr noundef %56)
  br label %58

58:                                               ; preds = %51, %45
  %59 = load ptr, ptr %2, align 8
  %60 = call i32 (ptr, ptr, ...) @ahprintf(ptr noundef %59, ptr noundef @.str.257)
  %61 = load ptr, ptr %2, align 8
  %62 = call i32 (ptr, ptr, ...) @ahprintf(ptr noundef %61, ptr noundef @.str.258)
  %63 = load ptr, ptr %2, align 8
  %64 = call i32 (ptr, ptr, ...) @ahprintf(ptr noundef %63, ptr noundef @.str.259)
  %65 = load ptr, ptr %2, align 8
  %66 = getelementptr inbounds nuw %struct._archiveHandle, ptr %65, i32 0, i32 0
  %67 = getelementptr inbounds nuw %struct.Archive, ptr %66, i32 0, i32 11
  %68 = load i8, ptr %67, align 4, !range !4, !noundef !5
  %69 = trunc i8 %68 to i1
  br i1 %69, label %73, label %70

70:                                               ; preds = %58
  %71 = load ptr, ptr %2, align 8
  %72 = call i32 (ptr, ptr, ...) @ahprintf(ptr noundef %71, ptr noundef @.str.260)
  br label %73

73:                                               ; preds = %70, %58
  %74 = load ptr, ptr %3, align 8
  %75 = icmp ne ptr %74, null
  br i1 %75, label %76, label %84

76:                                               ; preds = %73
  %77 = load ptr, ptr %3, align 8
  %78 = getelementptr inbounds nuw %struct._restoreOptions, ptr %77, i32 0, i32 48
  %79 = load i32, ptr %78, align 8
  %80 = icmp ne i32 %79, 0
  br i1 %80, label %81, label %84

81:                                               ; preds = %76
  %82 = load ptr, ptr %2, align 8
  %83 = call i32 (ptr, ptr, ...) @ahprintf(ptr noundef %82, ptr noundef @.str.261)
  br label %87

84:                                               ; preds = %76, %73
  %85 = load ptr, ptr %2, align 8
  %86 = call i32 (ptr, ptr, ...) @ahprintf(ptr noundef %85, ptr noundef @.str.262)
  br label %87

87:                                               ; preds = %84, %81
  %88 = load ptr, ptr %3, align 8
  %89 = icmp ne ptr %88, null
  br i1 %89, label %90, label %109

90:                                               ; preds = %87
  %91 = load ptr, ptr %3, align 8
  %92 = getelementptr inbounds nuw %struct._restoreOptions, ptr %91, i32 0, i32 46
  %93 = load i32, ptr %92, align 8
  %94 = icmp sgt i32 %93, 0
  br i1 %94, label %95, label %109

95:                                               ; preds = %90
  %96 = load ptr, ptr %2, align 8
  %97 = getelementptr inbounds nuw %struct._archiveHandle, ptr %96, i32 0, i32 42
  %98 = load ptr, ptr %97, align 8
  %99 = icmp ne ptr %98, null
  br i1 %99, label %100, label %103

100:                                              ; preds = %95
  %101 = load ptr, ptr %2, align 8
  %102 = getelementptr inbounds nuw %struct._archiveHandle, ptr %101, i32 0, i32 0
  call void @StartTransaction(ptr noundef %102)
  br label %106

103:                                              ; preds = %95
  %104 = load ptr, ptr %2, align 8
  %105 = call i32 (ptr, ptr, ...) @ahprintf(ptr noundef %104, ptr noundef @.str.263)
  br label %106

106:                                              ; preds = %103, %100
  %107 = load ptr, ptr %2, align 8
  %108 = getelementptr inbounds nuw %struct._archiveHandle, ptr %107, i32 0, i32 68
  store i32 0, ptr %108, align 8
  br label %109

109:                                              ; preds = %106, %90, %87
  %110 = load ptr, ptr %2, align 8
  %111 = call i32 (ptr, ptr, ...) @ahprintf(ptr noundef %110, ptr noundef @.str.12)
  call void @llvm.lifetime.end.p0(i64 8, ptr %3) #11
  ret void
}