; Function Attrs: nounwind uwtable
define internal fastcc void @_doSetFixedOutputState(ptr noundef %0) unnamed_addr #0 {
  %2 = getelementptr inbounds nuw i8, ptr %0, i64 8
  %3 = load ptr, ptr %2, align 8
  %4 = tail call i32 (ptr, ptr, ...) @ahprintf(ptr noundef %0, ptr noundef nonnull @.str.248)
  %5 = tail call i32 (ptr, ptr, ...) @ahprintf(ptr noundef %0, ptr noundef nonnull @.str.249)
  %6 = tail call i32 (ptr, ptr, ...) @ahprintf(ptr noundef %0, ptr noundef nonnull @.str.250)
  %7 = tail call i32 (ptr, ptr, ...) @ahprintf(ptr noundef %0, ptr noundef nonnull @.str.251)
  %8 = getelementptr inbounds nuw i8, ptr %0, i64 64
  %9 = load i32, ptr %8, align 8
  %10 = tail call ptr @pg_encoding_to_char(i32 noundef %9) #22
  %11 = tail call i32 (ptr, ptr, ...) @ahprintf(ptr noundef %0, ptr noundef nonnull @.str.252, ptr noundef %10)
  %12 = getelementptr inbounds nuw i8, ptr %0, i64 68
  %13 = load i8, ptr %12, align 4, !range !4, !noundef !5
  %14 = trunc nuw i8 %13 to i1
  %15 = select i1 %14, ptr @.str.254, ptr @.str.255
  %16 = tail call i32 (ptr, ptr, ...) @ahprintf(ptr noundef %0, ptr noundef nonnull @.str.253, ptr noundef nonnull %15)
  %.not = icmp eq ptr %3, null
  br i1 %.not, label %23, label %17

17:                                               ; preds = %1
  %18 = getelementptr inbounds nuw i8, ptr %3, i64 32
  %19 = load ptr, ptr %18, align 8
  %.not34 = icmp eq ptr %19, null
  br i1 %.not34, label %23, label %20

20:                                               ; preds = %17
  %21 = tail call ptr @fmtId(ptr noundef nonnull %19) #22
  %22 = tail call i32 (ptr, ptr, ...) @ahprintf(ptr noundef nonnull %0, ptr noundef nonnull @.str.256, ptr noundef %21)
  br label %23

23:                                               ; preds = %20, %17, %1
  %24 = getelementptr inbounds nuw i8, ptr %0, i64 72
  %25 = load ptr, ptr %24, align 8
  %.not35 = icmp eq ptr %25, null
  br i1 %.not35, label %28, label %26

26:                                               ; preds = %23
  %27 = tail call i32 (ptr, ptr, ...) @ahprintf(ptr noundef nonnull %0, ptr noundef nonnull @.str.25, ptr noundef nonnull %25)
  br label %28

28:                                               ; preds = %26, %23
  %29 = tail call i32 (ptr, ptr, ...) @ahprintf(ptr noundef nonnull %0, ptr noundef nonnull @.str.257)
  %30 = tail call i32 (ptr, ptr, ...) @ahprintf(ptr noundef nonnull %0, ptr noundef nonnull @.str.258)
  %31 = tail call i32 (ptr, ptr, ...) @ahprintf(ptr noundef nonnull %0, ptr noundef nonnull @.str.259)
  %32 = load i8, ptr %12, align 4, !range !4, !noundef !5
  %33 = trunc nuw i8 %32 to i1
  br i1 %33, label %36, label %34

34:                                               ; preds = %28
  %35 = tail call i32 (ptr, ptr, ...) @ahprintf(ptr noundef nonnull %0, ptr noundef nonnull @.str.260)
  br label %36

36:                                               ; preds = %34, %28
  br i1 %.not, label %.thread38, label %38

.thread38:                                        ; preds = %36
  %37 = tail call i32 (ptr, ptr, ...) @ahprintf(ptr noundef nonnull %0, ptr noundef nonnull @.str.262)
  br label %53

38:                                               ; preds = %36
  %39 = getelementptr inbounds nuw i8, ptr %3, i64 384
  %40 = load i32, ptr %39, align 8
  %.not36 = icmp eq i32 %40, 0
  %.str.262..str.261 = select i1 %.not36, ptr @.str.262, ptr @.str.261
  %41 = tail call i32 (ptr, ptr, ...) @ahprintf(ptr noundef nonnull %0, ptr noundef nonnull %.str.262..str.261)
  %42 = getelementptr inbounds nuw i8, ptr %3, i64 368
  %43 = load i32, ptr %42, align 8
  %44 = icmp sgt i32 %43, 0
  br i1 %44, label %45, label %53

45:                                               ; preds = %38
  %46 = getelementptr inbounds nuw i8, ptr %0, i64 440
  %47 = load ptr, ptr %46, align 8
  %.not37 = icmp eq ptr %47, null
  br i1 %.not37, label %49, label %48

48:                                               ; preds = %45
  tail call void @StartTransaction(ptr noundef nonnull %0) #22
  br label %51

49:                                               ; preds = %45
  %50 = tail call i32 (ptr, ptr, ...) @ahprintf(ptr noundef nonnull %0, ptr noundef nonnull @.str.263)
  br label %51

51:                                               ; preds = %49, %48
  %52 = getelementptr inbounds nuw i8, ptr %0, i64 632
  store i32 0, ptr %52, align 8
  br label %53

53:                                               ; preds = %.thread38, %51, %38
  %54 = tail call i32 (ptr, ptr, ...) @ahprintf(ptr noundef nonnull %0, ptr noundef nonnull @.str.12)
  ret void
}